target datalayout = "e-m:e-p270:32:32-p271:32:32-p272:64:64-i64:64-i128:128-f80:128-n8:16:32:64-S128"
target triple = "x86_64-unknown-linux-gnu"

%"class.icu_75::UObject" = type { ptr }
%"class.icu_75::CollationLoader" = type { ptr, ptr, %"class.icu_75::Locale", %"class.icu_75::Locale", [16 x i8], [16 x i8], i32, i8, ptr, ptr, ptr }
%"class.icu_75::Locale" = type <{ %"class.icu_75::UObject", [12 x i8], [6 x i8], [4 x i8], [2 x i8], i32, [4 x i8], ptr, [157 x i8], [3 x i8], ptr, i8, [7 x i8] }>

; Function Attrs: mustprogress nounwind uwtable
define internal noundef signext i8 @_ZL9U_FAILURE10UErrorCode(i32 noundef %code) #0 {
entry:
  %code.addr = alloca i32, align 4
  store i32 %code, ptr %code.addr, align 4
  %0 = load i32, ptr %code.addr, align 4
  %cmp = icmp sgt i32 %0, 0
  %conv = zext i1 %cmp to i8
  ret i8 %conv
}

; Function Attrs: mustprogress uwtable
define noundef ptr @_ZNK6icu_7515CollationLoader22makeCacheEntryFromRootERKNS_6LocaleER10UErrorCode(ptr noundef nonnull align 8 dereferenceable(528) %this, ptr noundef nonnull align 8 dereferenceable(217) %0, ptr noundef nonnull align 4 dereferenceable(4) %errorCode) #1 align 2 {
entry:
  %retval = alloca ptr, align 8
  %this.addr = alloca ptr, align 8
  %.addr = alloca ptr, align 8
  %errorCode.addr = alloca ptr, align 8
  store ptr %this, ptr %this.addr, align 8
  store ptr %0, ptr %.addr, align 8
  store ptr %errorCode, ptr %errorCode.addr, align 8
  %this1 = load ptr, ptr %this.addr, align 8
  %1 = load ptr, ptr %errorCode.addr, align 8
  %2 = load i32, ptr %1, align 4
  %call = call noundef signext i8 @_ZL9U_FAILURE10UErrorCode(i32 noundef %2)
  %tobool = icmp ne i8 %call, 0
  br i1 %tobool, label %if.then, label %if.end

if.then:                                          ; preds = %entry
  store ptr null, ptr %retval, align 8
  br label %return

if.end:                                           ; preds = %entry
  %rootEntry = getelementptr inbounds %"class.icu_75::CollationLoader", ptr %this1, i32 0, i32 1
  %3 = load ptr, ptr %rootEntry, align 8
  call void @_ZNK6icu_7512SharedObject6addRefEv(ptr noundef nonnull align 8 dereferenceable(24) %3)
  %validLocale = getelementptr inbounds %"class.icu_75::CollationLoader", ptr %this1, i32 0, i32 2
  %rootEntry2 = getelementptr inbounds %"class.icu_75::CollationLoader", ptr %this1, i32 0, i32 1
  %4 = load ptr, ptr %rootEntry2, align 8
  %5 = load ptr, ptr %errorCode.addr, align 8
  %call3 = call noundef ptr @_ZN6icu_7515CollationLoader14makeCacheEntryERKNS_6LocaleEPKNS_19CollationCacheEntryER10UErrorCode(ptr noundef nonnull align 8 dereferenceable(217) %validLocale, ptr noundef %4, ptr noundef nonnull align 4 dereferenceable(4) %5)
  store ptr %call3, ptr %retval, align 8
  br label %return

return:                                           ; preds = %if.end, %if.then
  %6 = load ptr, ptr %retval, align 8
  ret ptr %6
}