; Function Attrs: mustprogress uwtable
define noundef ptr @_ZNK6icu_7515CollationLoader22makeCacheEntryFromRootERKNS_6LocaleER10UErrorCode(ptr noundef nonnull align 8 dereferenceable(528) %this, ptr nocapture nonnull readnone align 8 %0, ptr nocapture noundef nonnull align 4 dereferenceable(4) %errorCode) local_unnamed_addr #1 align 2 {
entry:
  %1 = load i32, ptr %errorCode, align 4
  %cmp.i = icmp slt i32 %1, 1
  br i1 %cmp.i, label %if.end, label %return

if.end:                                           ; preds = %entry
  %rootEntry = getelementptr inbounds i8, ptr %this, i64 8
  %2 = load ptr, ptr %rootEntry, align 8
  tail call void @_ZNK6icu_7512SharedObject6addRefEv(ptr noundef nonnull align 8 dereferenceable(24) %2)
  %validLocale = getelementptr inbounds i8, ptr %this, i64 16
  %3 = load ptr, ptr %rootEntry, align 8
  %call3 = tail call noundef ptr @_ZN6icu_7515CollationLoader14makeCacheEntryERKNS_6LocaleEPKNS_19CollationCacheEntryER10UErrorCode(ptr noundef nonnull align 8 dereferenceable(217) %validLocale, ptr noundef %3, ptr noundef nonnull align 4 dereferenceable(4) %errorCode)
  br label %return

return:                                           ; preds = %entry, %if.end
  %retval.0 = phi ptr [ %call3, %if.end ], [ null, %entry ]
  ret ptr %retval.0
}